target datalayout = "e-m:e-p270:32:32-p271:32:32-p272:64:64-i64:64-i128:128-f80:128-n8:16:32:64-S128"
target triple = "x86_64-unknown-linux-gnu"

%"class.pugi::xml_attribute" = type { ptr }
%"struct.pugi::xml_attribute_struct" = type { i64, ptr, ptr, ptr, ptr }

; Function Attrs: mustprogress nounwind uwtable
define internal noundef i64 @_ZN4pugi4impl12_GLOBAL__N_116get_value_ullongEPKc(ptr noundef %value) #0 {
entry:
  %value.addr = alloca ptr, align 8
  store ptr %value, ptr %value.addr, align 8
  %0 = load ptr, ptr %value.addr, align 8
  %call = call noundef i64 @_ZN4pugi4impl12_GLOBAL__N_117string_to_integerIyEET_PKcS3_S3_(ptr noundef %0, i64 noundef 0, i64 noundef -1)
  ret i64 %call
}

; Function Attrs: mustprogress uwtable
define noundef i64 @_ZNK4pugi13xml_attribute9as_ullongEy(ptr noundef nonnull align 8 dereferenceable(8) %this, i64 noundef %def) #2 align 2 {
entry:
  %retval = alloca i64, align 8
  %this.addr = alloca ptr, align 8
  %def.addr = alloca i64, align 8
  %value = alloca ptr, align 8
  store ptr %this, ptr %this.addr, align 8
  store i64 %def, ptr %def.addr, align 8
  %this1 = load ptr, ptr %this.addr, align 8
  %_attr = getelementptr inbounds %"class.pugi::xml_attribute", ptr %this1, i32 0, i32 0
  %0 = load ptr, ptr %_attr, align 8
  %tobool = icmp ne ptr %0, null
  br i1 %tobool, label %if.end, label %if.then

if.then:                                          ; preds = %entry
  %1 = load i64, ptr %def.addr, align 8
  store i64 %1, ptr %retval, align 8
  br label %return

if.end:                                           ; preds = %entry
  %_attr2 = getelementptr inbounds %"class.pugi::xml_attribute", ptr %this1, i32 0, i32 0
  %2 = load ptr, ptr %_attr2, align 8
  %value3 = getelementptr inbounds %"struct.pugi::xml_attribute_struct", ptr %2, i32 0, i32 2
  %3 = load ptr, ptr %value3, align 8
  store ptr %3, ptr %value, align 8
  %4 = load ptr, ptr %value, align 8
  %tobool4 = icmp ne ptr %4, null
  br i1 %tobool4, label %cond.true, label %cond.false

cond.true:                                        ; preds = %if.end
  %5 = load ptr, ptr %value, align 8
  %call = call noundef i64 @_ZN4pugi4impl12_GLOBAL__N_116get_value_ullongEPKc(ptr noundef %5)
  br label %cond.end

cond.false:                                       ; preds = %if.end
  %6 = load i64, ptr %def.addr, align 8
  br label %cond.end

cond.end:                                         ; preds = %cond.false, %cond.true
  %cond = phi i64 [ %call, %cond.true ], [ %6, %cond.false ]
  store i64 %cond, ptr %retval, align 8
  br label %return

return:                                           ; preds = %cond.end, %if.then
  %7 = load i64, ptr %retval, align 8
  ret i64 %7
}